; Function Attrs: mustprogress nounwind uwtable
define dso_local void @_ZN4llvm9DwarfUnit18addConstantFPValueERNS_3DIEEPKNS_10ConstantFPE(ptr noundef nonnull align 8 dereferenceable(328) %0, ptr noundef nonnull align 8 dereferenceable(48) %1, ptr noundef %2) local_unnamed_addr #0 align 2 {
  %4 = alloca %"class.llvm::APInt", align 8
  %5 = getelementptr inbounds i8, ptr %2, i64 32
  %6 = load ptr, ptr %5, align 8, !noalias !27
  %7 = tail call noundef nonnull align 1 ptr @_ZN4llvm11APFloatBase15PPCDoubleDoubleEv() #23
  %.not.i = icmp eq ptr %6, %7
  br i1 %.not.i, label %9, label %8

8:                                                ; preds = %3
  call void @_ZNK4llvm6detail9IEEEFloat14bitcastToAPIntEv(ptr dead_on_unwind nonnull writable sret(%"class.llvm::APInt") align 8 %4, ptr noundef nonnull align 8 dereferenceable(24) %5) #19
  br label %_ZNK4llvm7APFloat14bitcastToAPIntEv.exit

9:                                                ; preds = %3
  call void @_ZNK4llvm6detail13DoubleAPFloat14bitcastToAPIntEv(ptr dead_on_unwind nonnull writable sret(%"class.llvm::APInt") align 8 %4, ptr noundef nonnull align 8 dereferenceable(16) %5) #19
  br label %_ZNK4llvm7APFloat14bitcastToAPIntEv.exit

_ZNK4llvm7APFloat14bitcastToAPIntEv.exit:         ; preds = %8, %9
  call void @_ZN4llvm9DwarfUnit16addConstantValueERNS_3DIEERKNS_5APIntEb(ptr noundef nonnull align 8 dereferenceable(328) %0, ptr noundef nonnull align 8 dereferenceable(48) %1, ptr noundef nonnull align 8 dereferenceable(12) %4, i1 noundef zeroext true)
  %10 = getelementptr inbounds nuw i8, ptr %4, i64 8
  %11 = load i32, ptr %10, align 8
  %12 = icmp ugt i32 %11, 64
  br i1 %12, label %13, label %_ZN4llvm5APIntD2Ev.exit

13:                                               ; preds = %_ZNK4llvm7APFloat14bitcastToAPIntEv.exit
  %14 = load ptr, ptr %4, align 8
  %15 = icmp eq ptr %14, null
  br i1 %15, label %_ZN4llvm5APIntD2Ev.exit, label %16

16:                                               ; preds = %13
  call void @_ZdaPv(ptr noundef nonnull %14) #20
  br label %_ZN4llvm5APIntD2Ev.exit

_ZN4llvm5APIntD2Ev.exit:                          ; preds = %_ZNK4llvm7APFloat14bitcastToAPIntEv.exit, %13, %16
  ret void
}